; Function Attrs: mustprogress uwtable
define hidden void @_ZN10statistics6updateEPKcd(ptr noundef nonnull align 8 dereferenceable(16) %this, ptr noundef %key, double noundef %inc) local_unnamed_addr #3 align 2 {
entry:
  %cmp = fcmp une double %inc, 0.000000e+00
  br i1 %cmp, label %if.then, label %if.end

if.then:                                          ; preds = %entry
  %m_d_stats = getelementptr inbounds i8, ptr %this, i64 8
  %0 = load ptr, ptr %m_d_stats, align 8
  %cmp.i = icmp eq ptr %0, null
  br i1 %cmp.i, label %if.then.i, label %lor.lhs.false.i

lor.lhs.false.i:                                  ; preds = %if.then
  %arrayidx.i = getelementptr inbounds i8, ptr %0, i64 -4
  %1 = load i32, ptr %arrayidx.i, align 4
  %arrayidx4.i = getelementptr inbounds i8, ptr %0, i64 -8
  %2 = load i32, ptr %arrayidx4.i, align 4
  %cmp5.i = icmp eq i32 %1, %2
  br i1 %cmp5.i, label %if.then.i, label %_ZN6vectorISt4pairIPKcdELb0EjE9push_backEOS3_.exit

if.then.i:                                        ; preds = %lor.lhs.false.i, %if.then
  tail call void @_ZN6vectorISt4pairIPKcdELb0EjE13expand_vectorEv(ptr noundef nonnull align 8 dereferenceable(8) %m_d_stats)
  %.pre.i = load ptr, ptr %m_d_stats, align 8
  %arrayidx8.phi.trans.insert.i = getelementptr inbounds i8, ptr %.pre.i, i64 -4
  %.pre1.i = load i32, ptr %arrayidx8.phi.trans.insert.i, align 4
  br label %_ZN6vectorISt4pairIPKcdELb0EjE9push_backEOS3_.exit

_ZN6vectorISt4pairIPKcdELb0EjE9push_backEOS3_.exit: ; preds = %lor.lhs.false.i, %if.then.i
  %3 = phi i32 [ %.pre1.i, %if.then.i ], [ %1, %lor.lhs.false.i ]
  %4 = phi ptr [ %.pre.i, %if.then.i ], [ %0, %lor.lhs.false.i ]
  %idx.ext.i = zext i32 %3 to i64
  %add.ptr.i = getelementptr inbounds %"struct.std::pair.2", ptr %4, i64 %idx.ext.i
  store ptr %key, ptr %add.ptr.i, align 8
  %ref.tmp.sroa.2.0.add.ptr.i.sroa_idx = getelementptr inbounds i8, ptr %add.ptr.i, i64 8
  store double %inc, ptr %ref.tmp.sroa.2.0.add.ptr.i.sroa_idx, align 8
  %5 = load ptr, ptr %m_d_stats, align 8
  %arrayidx10.i = getelementptr inbounds i8, ptr %5, i64 -4
  %6 = load i32, ptr %arrayidx10.i, align 4
  %inc.i = add i32 %6, 1
  store i32 %inc.i, ptr %arrayidx10.i, align 4
  br label %if.end

if.end:                                           ; preds = %_ZN6vectorISt4pairIPKcdELb0EjE9push_backEOS3_.exit, %entry
  ret void
}